target datalayout = "e-m:e-p270:32:32-p271:32:32-p272:64:64-i64:64-i128:128-f80:128-n8:16:32:64-S128"
target triple = "x86_64-pc-linux-gnu"

%struct.HashValue = type { i32, %union.anon }
%union.anon = type { i32, [28 x i8] }

@_ZZN9HashValue4InitE9HASH_TYPEE9EmptyHash = internal global [32 x i8] c"\DD\0E\89\17v\93?C\C7\D02\B0\8A\91~%t\1F\8A\A9\A1,\12\E1\CA\C8\80\15\00\F2\CAO", align 16

; Function Attrs: mustprogress nounwind uwtable
define void @_ZN9HashValue4InitE9HASH_TYPE(ptr noundef nonnull align 4 dereferenceable(36) %0, i32 noundef %1) #0 align 2 {
  %3 = alloca ptr, align 8
  %4 = alloca i32, align 4
  store ptr %0, ptr %3, align 8
  store i32 %1, ptr %4, align 4
  %5 = load ptr, ptr %3, align 8
  %6 = load i32, ptr %4, align 4
  %7 = getelementptr inbounds %struct.HashValue, ptr %5, i32 0, i32 0
  store i32 %6, ptr %7, align 4
  %8 = load i32, ptr %4, align 4
  %9 = icmp eq i32 %8, 1
  br i1 %9, label %13, label %10

10:                                               ; preds = %2
  %11 = load i32, ptr %4, align 4
  %12 = icmp eq i32 %11, 2
  br i1 %12, label %13, label %15

13:                                               ; preds = %10, %2
  %14 = getelementptr inbounds %struct.HashValue, ptr %5, i32 0, i32 1
  store i32 0, ptr %14, align 4
  br label %15

15:                                               ; preds = %13, %10
  %16 = load i32, ptr %4, align 4
  %17 = icmp eq i32 %16, 3
  br i1 %17, label %18, label %21

18:                                               ; preds = %15
  %19 = getelementptr inbounds %struct.HashValue, ptr %5, i32 0, i32 1
  %20 = getelementptr inbounds [32 x i8], ptr %19, i64 0, i64 0
  call void @llvm.memcpy.p0.p0.i64(ptr align 4 %20, ptr align 16 @_ZZN9HashValue4InitE9HASH_TYPEE9EmptyHash, i64 32, i1 false)
  br label %21

21:                                               ; preds = %18, %15
  ret void
}