; Function Attrs: mustprogress nofree norecurse nosync nounwind willreturn memory(argmem: readwrite) uwtable
define void @_ZN9HashValue4InitE9HASH_TYPE(ptr nocapture noundef nonnull writeonly align 4 dereferenceable(36) %0, i32 noundef %1) local_unnamed_addr #0 align 2 {
  store i32 %1, ptr %0, align 4
  %3 = add i32 %1, -1
  %or.cond = icmp ult i32 %3, 2
  br i1 %or.cond, label %.thread, label %5

.thread:                                          ; preds = %2
  %4 = getelementptr inbounds i8, ptr %0, i64 4
  store i32 0, ptr %4, align 4
  br label %9

5:                                                ; preds = %2
  %6 = icmp eq i32 %1, 3
  br i1 %6, label %7, label %9

7:                                                ; preds = %5
  %8 = getelementptr inbounds i8, ptr %0, i64 4
  tail call void @llvm.memcpy.p0.p0.i64(ptr noundef nonnull align 4 dereferenceable(32) %8, ptr noundef nonnull align 16 dereferenceable(32) @_ZZN9HashValue4InitE9HASH_TYPEE9EmptyHash, i64 32, i1 false)
  br label %9

9:                                                ; preds = %.thread, %7, %5
  ret void
}